target datalayout = "e-m:e-p270:32:32-p271:32:32-p272:64:64-i64:64-i128:128-f80:128-n8:16:32:64-S128"
target triple = "x86_64-unknown-linux-gnu"

%"class.QuantLib::Date" = type { i64 }
%"class.boost::detail::shared_count" = type { ptr }
%"class.QuantLib::Handle" = type { %"class.boost::shared_ptr.18" }
%"class.boost::shared_ptr.18" = type { ptr, %"class.boost::detail::shared_count" }
%"class.QuantLib::RelinkableHandle" = type { %"class.QuantLib::Handle" }
%"class.QuantLib::Handle.23" = type { %"class.boost::shared_ptr.24" }
%"class.boost::shared_ptr.24" = type { ptr, %"class.boost::detail::shared_count" }

; Function Attrs: mustprogress nounwind uwtable
define linkonce_odr void @_ZN5boost6detail12shared_countC2EOS1_(ptr noundef nonnull align 8 dereferenceable(8) %this, ptr noundef nonnull align 8 dereferenceable(8) %r) unnamed_addr #1 comdat align 2 {
entry:
  %this.addr = alloca ptr, align 8
  %r.addr = alloca ptr, align 8
  store ptr %this, ptr %this.addr, align 8, !tbaa !3
  store ptr %r, ptr %r.addr, align 8, !tbaa !3
  %this1 = load ptr, ptr %this.addr, align 8
  %pi_ = getelementptr inbounds nuw %"class.boost::detail::shared_count", ptr %this1, i32 0, i32 0
  %0 = load ptr, ptr %r.addr, align 8, !tbaa !3
  %pi_2 = getelementptr inbounds nuw %"class.boost::detail::shared_count", ptr %0, i32 0, i32 0
  %1 = load ptr, ptr %pi_2, align 8, !tbaa !164
  store ptr %1, ptr %pi_, align 8, !tbaa !164
  %2 = load ptr, ptr %r.addr, align 8, !tbaa !3
  %pi_3 = getelementptr inbounds nuw %"class.boost::detail::shared_count", ptr %2, i32 0, i32 0
  store ptr null, ptr %pi_3, align 8, !tbaa !164
  ret void
}

; Function Attrs: mustprogress nounwind uwtable
define linkonce_odr void @_ZN5boost10shared_ptrIN8QuantLib6HandleINS1_18YieldTermStructureEE4LinkEEC2EOS6_(ptr noundef nonnull align 8 dereferenceable(16) %this, ptr noundef nonnull align 8 dereferenceable(16) %r) unnamed_addr #1 comdat align 2 {
entry:
  %this.addr = alloca ptr, align 8
  %r.addr = alloca ptr, align 8
  store ptr %this, ptr %this.addr, align 8, !tbaa !3
  store ptr %r, ptr %r.addr, align 8, !tbaa !3
  %this1 = load ptr, ptr %this.addr, align 8
  %px = getelementptr inbounds nuw %"class.boost::shared_ptr.24", ptr %this1, i32 0, i32 0
  %0 = load ptr, ptr %r.addr, align 8, !tbaa !3
  %px2 = getelementptr inbounds nuw %"class.boost::shared_ptr.24", ptr %0, i32 0, i32 0
  %1 = load ptr, ptr %px2, align 8, !tbaa !209
  store ptr %1, ptr %px, align 8, !tbaa !209
  %pn = getelementptr inbounds nuw %"class.boost::shared_ptr.24", ptr %this1, i32 0, i32 1
  %2 = load ptr, ptr %r.addr, align 8, !tbaa !3
  %pn3 = getelementptr inbounds nuw %"class.boost::shared_ptr.24", ptr %2, i32 0, i32 1
  call void @_ZN5boost6detail12shared_countC2EOS1_(ptr noundef nonnull align 8 dereferenceable(8) %pn, ptr noundef nonnull align 8 dereferenceable(8) %pn3) #17
  %3 = load ptr, ptr %r.addr, align 8, !tbaa !3
  %px4 = getelementptr inbounds nuw %"class.boost::shared_ptr.24", ptr %3, i32 0, i32 0
  store ptr null, ptr %px4, align 8, !tbaa !209
  ret void
}

; Function Attrs: mustprogress nounwind uwtable
define linkonce_odr void @_ZN5boost10shared_ptrIN8QuantLib6HandleINS1_5QuoteEE4LinkEEC2EOS6_(ptr noundef nonnull align 8 dereferenceable(16) %this, ptr noundef nonnull align 8 dereferenceable(16) %r) unnamed_addr #1 comdat align 2 {
entry:
  %this.addr = alloca ptr, align 8
  %r.addr = alloca ptr, align 8
  store ptr %this, ptr %this.addr, align 8, !tbaa !3
  store ptr %r, ptr %r.addr, align 8, !tbaa !3
  %this1 = load ptr, ptr %this.addr, align 8
  %px = getelementptr inbounds nuw %"class.boost::shared_ptr.18", ptr %this1, i32 0, i32 0
  %0 = load ptr, ptr %r.addr, align 8, !tbaa !3
  %px2 = getelementptr inbounds nuw %"class.boost::shared_ptr.18", ptr %0, i32 0, i32 0
  %1 = load ptr, ptr %px2, align 8, !tbaa !166
  store ptr %1, ptr %px, align 8, !tbaa !166
  %pn = getelementptr inbounds nuw %"class.boost::shared_ptr.18", ptr %this1, i32 0, i32 1
  %2 = load ptr, ptr %r.addr, align 8, !tbaa !3
  %pn3 = getelementptr inbounds nuw %"class.boost::shared_ptr.18", ptr %2, i32 0, i32 1
  call void @_ZN5boost6detail12shared_countC2EOS1_(ptr noundef nonnull align 8 dereferenceable(8) %pn, ptr noundef nonnull align 8 dereferenceable(8) %pn3) #17
  %3 = load ptr, ptr %r.addr, align 8, !tbaa !3
  %px4 = getelementptr inbounds nuw %"class.boost::shared_ptr.18", ptr %3, i32 0, i32 0
  store ptr null, ptr %px4, align 8, !tbaa !166
  ret void
}

; Function Attrs: inlinehint mustprogress nounwind uwtable
define linkonce_odr void @_ZN8QuantLib6HandleINS_18YieldTermStructureEEC2EOS2_(ptr noundef nonnull align 8 dereferenceable(16) %this, ptr noundef nonnull align 8 dereferenceable(16) %0) unnamed_addr #5 comdat align 2 {
entry:
  %this.addr = alloca ptr, align 8
  %.addr = alloca ptr, align 8
  store ptr %this, ptr %this.addr, align 8, !tbaa !3
  store ptr %0, ptr %.addr, align 8, !tbaa !3
  %this1 = load ptr, ptr %this.addr, align 8
  %link_ = getelementptr inbounds nuw %"class.QuantLib::Handle.23", ptr %this1, i32 0, i32 0
  %1 = load ptr, ptr %.addr, align 8, !tbaa !3
  %link_2 = getelementptr inbounds nuw %"class.QuantLib::Handle.23", ptr %1, i32 0, i32 0
  call void @_ZN5boost10shared_ptrIN8QuantLib6HandleINS1_18YieldTermStructureEE4LinkEEC2EOS6_(ptr noundef nonnull align 8 dereferenceable(16) %link_, ptr noundef nonnull align 8 dereferenceable(16) %link_2) #17
  ret void
}

; Function Attrs: inlinehint mustprogress nounwind uwtable
define linkonce_odr void @_ZN8QuantLib6HandleINS_5QuoteEEC2EOS2_(ptr noundef nonnull align 8 dereferenceable(16) %this, ptr noundef nonnull align 8 dereferenceable(16) %0) unnamed_addr #5 comdat align 2 {
entry:
  %this.addr = alloca ptr, align 8
  %.addr = alloca ptr, align 8
  store ptr %this, ptr %this.addr, align 8, !tbaa !3
  store ptr %0, ptr %.addr, align 8, !tbaa !3
  %this1 = load ptr, ptr %this.addr, align 8
  %link_ = getelementptr inbounds nuw %"class.QuantLib::Handle", ptr %this1, i32 0, i32 0
  %1 = load ptr, ptr %.addr, align 8, !tbaa !3
  %link_2 = getelementptr inbounds nuw %"class.QuantLib::Handle", ptr %1, i32 0, i32 0
  call void @_ZN5boost10shared_ptrIN8QuantLib6HandleINS1_5QuoteEE4LinkEEC2EOS6_(ptr noundef nonnull align 8 dereferenceable(16) %link_, ptr noundef nonnull align 8 dereferenceable(16) %link_2) #17
  ret void
}

; Function Attrs: mustprogress uwtable
define void @_ZN8QuantLib14SwapRateHelperC2EdRKN5boost10shared_ptrINS_9SwapIndexEEENS_6HandleINS_5QuoteEEERKNS_6PeriodENS7_INS_18YieldTermStructureEEENS_6Pillar6ChoiceENS_4DateEbRKNS1_8optionalIbEE(ptr noundef nonnull align 8 dereferenceable(354) %this, double noundef %rate, ptr noundef nonnull align 8 dereferenceable(16) %swapIndex, ptr noundef %spread, ptr noundef nonnull align 4 dereferenceable(8) %fwdStart, ptr noundef %discount, i32 noundef %pillarChoice, i64 %customPillarDate.coerce, i1 noundef zeroext %endOfMonth, ptr noundef nonnull align 1 dereferenceable(2) %useIndexedCoupons) unnamed_addr #2 align 2 personality ptr @__gxx_personality_v0 {
entry:
  %customPillarDate = alloca %"class.QuantLib::Date", align 8
  %this.addr = alloca ptr, align 8
  %rate.addr = alloca double, align 8
  %swapIndex.addr = alloca ptr, align 8
  %spread.indirect_addr = alloca ptr, align 8
  %fwdStart.addr = alloca ptr, align 8
  %discount.indirect_addr = alloca ptr, align 8
  %pillarChoice.addr = alloca i32, align 4
  %endOfMonth.addr = alloca i8, align 1
  %useIndexedCoupons.addr = alloca ptr, align 8
  %ref.tmp = alloca %"class.QuantLib::RelinkableHandle", align 8
  %agg.tmp = alloca %"class.QuantLib::Handle", align 8
  %agg.tmp2 = alloca %"class.QuantLib::Handle.23", align 8
  %agg.tmp3 = alloca %"class.QuantLib::Date", align 8
  %exn.slot = alloca ptr, align 8
  %ehselector.slot = alloca i32, align 4
  %coerce.dive = getelementptr inbounds nuw %"class.QuantLib::Date", ptr %customPillarDate, i32 0, i32 0
  store i64 %customPillarDate.coerce, ptr %coerce.dive, align 8
  store ptr %this, ptr %this.addr, align 8, !tbaa !3
  store double %rate, ptr %rate.addr, align 8, !tbaa !55
  store ptr %swapIndex, ptr %swapIndex.addr, align 8, !tbaa !3
  store ptr %spread, ptr %spread.indirect_addr, align 8, !tbaa !3
  store ptr %fwdStart, ptr %fwdStart.addr, align 8, !tbaa !3
  store ptr %discount, ptr %discount.indirect_addr, align 8, !tbaa !3
  store i32 %pillarChoice, ptr %pillarChoice.addr, align 4, !tbaa !83
  %storedv = zext i1 %endOfMonth to i8
  store i8 %storedv, ptr %endOfMonth.addr, align 1, !tbaa !22
  store ptr %useIndexedCoupons, ptr %useIndexedCoupons.addr, align 8, !tbaa !3
  %this1 = load ptr, ptr %this.addr, align 8
  call void @llvm.lifetime.start.p0(i64 16, ptr %ref.tmp) #17
  %0 = load double, ptr %rate.addr, align 8, !tbaa !55
  call void @_ZN8QuantLib15makeQuoteHandleEd(ptr dead_on_unwind writable sret(%"class.QuantLib::RelinkableHandle") align 8 %ref.tmp, double noundef %0)
  %1 = load ptr, ptr %swapIndex.addr, align 8, !tbaa !3
  call void @_ZN8QuantLib6HandleINS_5QuoteEEC2EOS2_(ptr noundef nonnull align 8 dereferenceable(16) %agg.tmp, ptr noundef nonnull align 8 dereferenceable(16) %spread) #17
  %2 = load ptr, ptr %fwdStart.addr, align 8, !tbaa !3
  call void @_ZN8QuantLib6HandleINS_18YieldTermStructureEEC2EOS2_(ptr noundef nonnull align 8 dereferenceable(16) %agg.tmp2, ptr noundef nonnull align 8 dereferenceable(16) %discount) #17
  %3 = load i32, ptr %pillarChoice.addr, align 4, !tbaa !83
  call void @llvm.memcpy.p0.p0.i64(ptr align 8 %agg.tmp3, ptr align 8 %customPillarDate, i64 8, i1 false), !tbaa.struct !26
  %4 = load i8, ptr %endOfMonth.addr, align 1, !tbaa !22, !range !29, !noundef !30
  %loadedv = trunc i8 %4 to i1
  %5 = load ptr, ptr %useIndexedCoupons.addr, align 8, !tbaa !3
  %coerce.dive4 = getelementptr inbounds nuw %"class.QuantLib::Date", ptr %agg.tmp3, i32 0, i32 0
  %6 = load i64, ptr %coerce.dive4, align 8
  invoke void @_ZN8QuantLib14SwapRateHelperC2ERKNS_6HandleINS_5QuoteEEERKN5boost10shared_ptrINS_9SwapIndexEEES3_RKNS_6PeriodENS1_INS_18YieldTermStructureEEENS_6Pillar6ChoiceENS_4DateEbRKNS6_8optionalIbEE(ptr noundef nonnull align 8 dereferenceable(354) %this1, ptr noundef nonnull align 8 dereferenceable(16) %ref.tmp, ptr noundef nonnull align 8 dereferenceable(16) %1, ptr noundef %agg.tmp, ptr noundef nonnull align 4 dereferenceable(8) %2, ptr noundef %agg.tmp2, i32 noundef %3, i64 %6, i1 noundef zeroext %loadedv, ptr noundef nonnull align 1 dereferenceable(2) %5)
          to label %invoke.cont unwind label %lpad

invoke.cont:                                      ; preds = %entry
  call void @_ZN8QuantLib6HandleINS_18YieldTermStructureEED2Ev(ptr noundef nonnull align 8 dereferenceable(16) %agg.tmp2) #17
  call void @_ZN8QuantLib6HandleINS_5QuoteEED2Ev(ptr noundef nonnull align 8 dereferenceable(16) %agg.tmp) #17
  call void @_ZN8QuantLib6HandleINS_5QuoteEED2Ev(ptr noundef nonnull align 8 dereferenceable(16) %ref.tmp) #17
  call void @llvm.lifetime.end.p0(i64 16, ptr %ref.tmp) #17
  ret void

lpad:                                             ; preds = %entry
  %7 = landingpad { ptr, i32 }
          cleanup
  %8 = extractvalue { ptr, i32 } %7, 0
  store ptr %8, ptr %exn.slot, align 8
  %9 = extractvalue { ptr, i32 } %7, 1
  store i32 %9, ptr %ehselector.slot, align 4
  call void @_ZN8QuantLib6HandleINS_18YieldTermStructureEED2Ev(ptr noundef nonnull align 8 dereferenceable(16) %agg.tmp2) #17
  call void @_ZN8QuantLib6HandleINS_5QuoteEED2Ev(ptr noundef nonnull align 8 dereferenceable(16) %agg.tmp) #17
  call void @_ZN8QuantLib6HandleINS_5QuoteEED2Ev(ptr noundef nonnull align 8 dereferenceable(16) %ref.tmp) #17
  call void @llvm.lifetime.end.p0(i64 16, ptr %ref.tmp) #17
  br label %eh.resume

eh.resume:                                        ; preds = %lpad
  %exn = load ptr, ptr %exn.slot, align 8
  %sel = load i32, ptr %ehselector.slot, align 4
  %lpad.val = insertvalue { ptr, i32 } poison, ptr %exn, 0
  %lpad.val5 = insertvalue { ptr, i32 } %lpad.val, i32 %sel, 1
  resume { ptr, i32 } %lpad.val5
}