; Function Attrs: mustprogress uwtable
define void @_ZN8QuantLib14SwapRateHelperC2EdRKN5boost10shared_ptrINS_9SwapIndexEEENS_6HandleINS_5QuoteEEERKNS_6PeriodENS7_INS_18YieldTermStructureEEENS_6Pillar6ChoiceENS_4DateEbRKNS1_8optionalIbEE(ptr noundef nonnull align 8 dereferenceable(354) %this, double noundef %rate, ptr nocapture noundef nonnull readonly align 8 dereferenceable(16) %swapIndex, ptr nocapture noundef %spread, ptr nocapture noundef nonnull readonly align 4 dereferenceable(8) %fwdStart, ptr nocapture noundef %discount, i32 noundef %pillarChoice, i64 %customPillarDate.coerce, i1 noundef zeroext %endOfMonth, ptr nocapture noundef nonnull readonly align 1 dereferenceable(2) %useIndexedCoupons) unnamed_addr #7 align 2 personality ptr @__gxx_personality_v0 {
entry:
  %ref.tmp = alloca %"class.QuantLib::RelinkableHandle", align 8
  %agg.tmp = alloca %"class.QuantLib::Handle", align 8
  %agg.tmp2 = alloca %"class.QuantLib::Handle.23", align 8
  call void @llvm.lifetime.start.p0(i64 16, ptr nonnull %ref.tmp) #26
  call void @_ZN8QuantLib15makeQuoteHandleEd(ptr dead_on_unwind nonnull writable sret(%"class.QuantLib::RelinkableHandle") align 8 %ref.tmp, double noundef %rate)
  %0 = load ptr, ptr %spread, align 8, !tbaa !43
  store ptr %0, ptr %agg.tmp, align 8, !tbaa !43
  %pn.i.i = getelementptr inbounds nuw i8, ptr %agg.tmp, i64 8
  %pn3.i.i = getelementptr inbounds nuw i8, ptr %spread, i64 8
  %1 = load ptr, ptr %pn3.i.i, align 8, !tbaa !37
  store ptr %1, ptr %pn.i.i, align 8, !tbaa !37
  call void @llvm.memset.p0.i64(ptr noundef nonnull align 8 dereferenceable(16) %spread, i8 0, i64 16, i1 false)
  %2 = load ptr, ptr %discount, align 8, !tbaa !113
  store ptr %2, ptr %agg.tmp2, align 8, !tbaa !113
  %pn.i.i1 = getelementptr inbounds nuw i8, ptr %agg.tmp2, i64 8
  %pn3.i.i2 = getelementptr inbounds nuw i8, ptr %discount, i64 8
  %3 = load ptr, ptr %pn3.i.i2, align 8, !tbaa !37
  store ptr %3, ptr %pn.i.i1, align 8, !tbaa !37
  call void @llvm.memset.p0.i64(ptr noundef nonnull align 8 dereferenceable(16) %discount, i8 0, i64 16, i1 false)
  invoke void @_ZN8QuantLib14SwapRateHelperC2ERKNS_6HandleINS_5QuoteEEERKN5boost10shared_ptrINS_9SwapIndexEEES3_RKNS_6PeriodENS1_INS_18YieldTermStructureEEENS_6Pillar6ChoiceENS_4DateEbRKNS6_8optionalIbEE(ptr noundef nonnull align 8 dereferenceable(354) %this, ptr noundef nonnull align 8 dereferenceable(16) %ref.tmp, ptr noundef nonnull align 8 dereferenceable(16) %swapIndex, ptr noundef nonnull %agg.tmp, ptr noundef nonnull align 4 dereferenceable(8) %fwdStart, ptr noundef nonnull %agg.tmp2, i32 noundef %pillarChoice, i64 %customPillarDate.coerce, i1 noundef zeroext %endOfMonth, ptr noundef nonnull align 1 dereferenceable(2) %useIndexedCoupons)
          to label %invoke.cont unwind label %lpad

invoke.cont:                                      ; preds = %entry
  %4 = load ptr, ptr %pn.i.i1, align 8, !tbaa !37
  %cmp.not.i.i.i = icmp eq ptr %4, null
  br i1 %cmp.not.i.i.i, label %_ZN8QuantLib6HandleINS_18YieldTermStructureEED2Ev.exit, label %if.then.i.i.i

if.then.i.i.i:                                    ; preds = %invoke.cont
  %use_count_.i.i.i.i = getelementptr inbounds nuw i8, ptr %4, i64 8
  %5 = atomicrmw sub ptr %use_count_.i.i.i.i, i32 1 acq_rel, align 4
  %cmp.i.i.i.i = icmp eq i32 %5, 1
  br i1 %cmp.i.i.i.i, label %if.then.i.i.i.i, label %_ZN8QuantLib6HandleINS_18YieldTermStructureEED2Ev.exit

if.then.i.i.i.i:                                  ; preds = %if.then.i.i.i
  %vtable.i.i.i.i = load ptr, ptr %4, align 8, !tbaa !35
  %vfn.i.i.i.i = getelementptr inbounds i8, ptr %vtable.i.i.i.i, i64 16
  %6 = load ptr, ptr %vfn.i.i.i.i, align 8
  invoke void %6(ptr noundef nonnull align 8 dereferenceable(16) %4)
          to label %.noexc.i.i.i unwind label %terminate.lpad.i.i.i

.noexc.i.i.i:                                     ; preds = %if.then.i.i.i.i
  %weak_count_.i.i.i.i.i = getelementptr inbounds nuw i8, ptr %4, i64 12
  %7 = atomicrmw sub ptr %weak_count_.i.i.i.i.i, i32 1 acq_rel, align 4
  %cmp.i.i.i.i.i = icmp eq i32 %7, 1
  br i1 %cmp.i.i.i.i.i, label %if.then.i.i.i.i.i, label %_ZN8QuantLib6HandleINS_18YieldTermStructureEED2Ev.exit

if.then.i.i.i.i.i:                                ; preds = %.noexc.i.i.i
  %vtable.i.i.i.i.i = load ptr, ptr %4, align 8, !tbaa !35
  %vfn.i.i.i.i.i = getelementptr inbounds i8, ptr %vtable.i.i.i.i.i, i64 24
  %8 = load ptr, ptr %vfn.i.i.i.i.i, align 8
  invoke void %8(ptr noundef nonnull align 8 dereferenceable(16) %4)
          to label %_ZN8QuantLib6HandleINS_18YieldTermStructureEED2Ev.exit unwind label %terminate.lpad.i.i.i

terminate.lpad.i.i.i:                             ; preds = %if.then.i.i.i.i.i, %if.then.i.i.i.i
  %9 = landingpad { ptr, i32 }
          catch ptr null
  %10 = extractvalue { ptr, i32 } %9, 0
  call void @__clang_call_terminate(ptr %10) #27
  unreachable

_ZN8QuantLib6HandleINS_18YieldTermStructureEED2Ev.exit: ; preds = %invoke.cont, %if.then.i.i.i, %.noexc.i.i.i, %if.then.i.i.i.i.i
  %11 = load ptr, ptr %pn.i.i, align 8, !tbaa !37
  %cmp.not.i.i.i5 = icmp eq ptr %11, null
  br i1 %cmp.not.i.i.i5, label %_ZN8QuantLib6HandleINS_5QuoteEED2Ev.exit, label %if.then.i.i.i6

if.then.i.i.i6:                                   ; preds = %_ZN8QuantLib6HandleINS_18YieldTermStructureEED2Ev.exit
  %use_count_.i.i.i.i7 = getelementptr inbounds nuw i8, ptr %11, i64 8
  %12 = atomicrmw sub ptr %use_count_.i.i.i.i7, i32 1 acq_rel, align 4
  %cmp.i.i.i.i8 = icmp eq i32 %12, 1
  br i1 %cmp.i.i.i.i8, label %if.then.i.i.i.i9, label %_ZN8QuantLib6HandleINS_5QuoteEED2Ev.exit

if.then.i.i.i.i9:                                 ; preds = %if.then.i.i.i6
  %vtable.i.i.i.i10 = load ptr, ptr %11, align 8, !tbaa !35
  %vfn.i.i.i.i11 = getelementptr inbounds i8, ptr %vtable.i.i.i.i10, i64 16
  %13 = load ptr, ptr %vfn.i.i.i.i11, align 8
  invoke void %13(ptr noundef nonnull align 8 dereferenceable(16) %11)
          to label %.noexc.i.i.i13 unwind label %terminate.lpad.i.i.i12

.noexc.i.i.i13:                                   ; preds = %if.then.i.i.i.i9
  %weak_count_.i.i.i.i.i14 = getelementptr inbounds nuw i8, ptr %11, i64 12
  %14 = atomicrmw sub ptr %weak_count_.i.i.i.i.i14, i32 1 acq_rel, align 4
  %cmp.i.i.i.i.i15 = icmp eq i32 %14, 1
  br i1 %cmp.i.i.i.i.i15, label %if.then.i.i.i.i.i16, label %_ZN8QuantLib6HandleINS_5QuoteEED2Ev.exit

if.then.i.i.i.i.i16:                              ; preds = %.noexc.i.i.i13
  %vtable.i.i.i.i.i17 = load ptr, ptr %11, align 8, !tbaa !35
  %vfn.i.i.i.i.i18 = getelementptr inbounds i8, ptr %vtable.i.i.i.i.i17, i64 24
  %15 = load ptr, ptr %vfn.i.i.i.i.i18, align 8
  invoke void %15(ptr noundef nonnull align 8 dereferenceable(16) %11)
          to label %_ZN8QuantLib6HandleINS_5QuoteEED2Ev.exit unwind label %terminate.lpad.i.i.i12

terminate.lpad.i.i.i12:                           ; preds = %if.then.i.i.i.i.i16, %if.then.i.i.i.i9
  %16 = landingpad { ptr, i32 }
          catch ptr null
  %17 = extractvalue { ptr, i32 } %16, 0
  call void @__clang_call_terminate(ptr %17) #27
  unreachable

_ZN8QuantLib6HandleINS_5QuoteEED2Ev.exit:         ; preds = %_ZN8QuantLib6HandleINS_18YieldTermStructureEED2Ev.exit, %if.then.i.i.i6, %.noexc.i.i.i13, %if.then.i.i.i.i.i16
  %pn.i.i19 = getelementptr inbounds nuw i8, ptr %ref.tmp, i64 8
  %18 = load ptr, ptr %pn.i.i19, align 8, !tbaa !37
  %cmp.not.i.i.i20 = icmp eq ptr %18, null
  br i1 %cmp.not.i.i.i20, label %_ZN8QuantLib6HandleINS_5QuoteEED2Ev.exit34, label %if.then.i.i.i21

if.then.i.i.i21:                                  ; preds = %_ZN8QuantLib6HandleINS_5QuoteEED2Ev.exit
  %use_count_.i.i.i.i22 = getelementptr inbounds nuw i8, ptr %18, i64 8
  %19 = atomicrmw sub ptr %use_count_.i.i.i.i22, i32 1 acq_rel, align 4
  %cmp.i.i.i.i23 = icmp eq i32 %19, 1
  br i1 %cmp.i.i.i.i23, label %if.then.i.i.i.i24, label %_ZN8QuantLib6HandleINS_5QuoteEED2Ev.exit34

if.then.i.i.i.i24:                                ; preds = %if.then.i.i.i21
  %vtable.i.i.i.i25 = load ptr, ptr %18, align 8, !tbaa !35
  %vfn.i.i.i.i26 = getelementptr inbounds i8, ptr %vtable.i.i.i.i25, i64 16
  %20 = load ptr, ptr %vfn.i.i.i.i26, align 8
  invoke void %20(ptr noundef nonnull align 8 dereferenceable(16) %18)
          to label %.noexc.i.i.i28 unwind label %terminate.lpad.i.i.i27

.noexc.i.i.i28:                                   ; preds = %if.then.i.i.i.i24
  %weak_count_.i.i.i.i.i29 = getelementptr inbounds nuw i8, ptr %18, i64 12
  %21 = atomicrmw sub ptr %weak_count_.i.i.i.i.i29, i32 1 acq_rel, align 4
  %cmp.i.i.i.i.i30 = icmp eq i32 %21, 1
  br i1 %cmp.i.i.i.i.i30, label %if.then.i.i.i.i.i31, label %_ZN8QuantLib6HandleINS_5QuoteEED2Ev.exit34

if.then.i.i.i.i.i31:                              ; preds = %.noexc.i.i.i28
  %vtable.i.i.i.i.i32 = load ptr, ptr %18, align 8, !tbaa !35
  %vfn.i.i.i.i.i33 = getelementptr inbounds i8, ptr %vtable.i.i.i.i.i32, i64 24
  %22 = load ptr, ptr %vfn.i.i.i.i.i33, align 8
  invoke void %22(ptr noundef nonnull align 8 dereferenceable(16) %18)
          to label %_ZN8QuantLib6HandleINS_5QuoteEED2Ev.exit34 unwind label %terminate.lpad.i.i.i27

terminate.lpad.i.i.i27:                           ; preds = %if.then.i.i.i.i.i31, %if.then.i.i.i.i24
  %23 = landingpad { ptr, i32 }
          catch ptr null
  %24 = extractvalue { ptr, i32 } %23, 0
  call void @__clang_call_terminate(ptr %24) #27
  unreachable

_ZN8QuantLib6HandleINS_5QuoteEED2Ev.exit34:       ; preds = %_ZN8QuantLib6HandleINS_5QuoteEED2Ev.exit, %if.then.i.i.i21, %.noexc.i.i.i28, %if.then.i.i.i.i.i31
  call void @llvm.lifetime.end.p0(i64 16, ptr nonnull %ref.tmp) #26
  ret void

lpad:                                             ; preds = %entry
  %25 = landingpad { ptr, i32 }
          cleanup
  call void @_ZN8QuantLib6HandleINS_18YieldTermStructureEED2Ev(ptr noundef nonnull align 8 dereferenceable(16) %agg.tmp2) #26
  call void @_ZN8QuantLib6HandleINS_5QuoteEED2Ev(ptr noundef nonnull align 8 dereferenceable(16) %agg.tmp) #26
  call void @_ZN8QuantLib6HandleINS_5QuoteEED2Ev(ptr noundef nonnull align 8 dereferenceable(16) %ref.tmp) #26
  call void @llvm.lifetime.end.p0(i64 16, ptr nonnull %ref.tmp) #26
  resume { ptr, i32 } %25
}